###############################################################################
#
# IAR ELF Linker V3.11.1.207 for STM8                     25/Jul/2020  16:09:06
# Copyright 2010-2019 IAR Systems AB.
#
#    Output file  =  
#        H:\SiShengShiyanJidi\STM8S005K6_JL\stm8s005_template\EWARM\Debug\Exe\stm8s005_template.out
#    Map file     =  
#        H:\SiShengShiyanJidi\STM8S005K6_JL\stm8s005_template\EWARM\Debug\List\stm8s005_template.map
#    Command line =  
#        -f C:\Users\sunxi\AppData\Local\Temp\EW429A.tmp
#        (H:\SiShengShiyanJidi\STM8S005K6_JL\stm8s005_template\EWARM\Debug\Obj\adc.o
#        H:\SiShengShiyanJidi\STM8S005K6_JL\stm8s005_template\EWARM\Debug\Obj\bluetooth.o
#        H:\SiShengShiyanJidi\STM8S005K6_JL\stm8s005_template\EWARM\Debug\Obj\device_info.o
#        H:\SiShengShiyanJidi\STM8S005K6_JL\stm8s005_template\EWARM\Debug\Obj\dl645.o
#        H:\SiShengShiyanJidi\STM8S005K6_JL\stm8s005_template\EWARM\Debug\Obj\hall.o
#        H:\SiShengShiyanJidi\STM8S005K6_JL\stm8s005_template\EWARM\Debug\Obj\ht7017.o
#        H:\SiShengShiyanJidi\STM8S005K6_JL\stm8s005_template\EWARM\Debug\Obj\i2c.o
#        H:\SiShengShiyanJidi\STM8S005K6_JL\stm8s005_template\EWARM\Debug\Obj\iwatchdog.o
#        H:\SiShengShiyanJidi\STM8S005K6_JL\stm8s005_template\EWARM\Debug\Obj\key.o
#        H:\SiShengShiyanJidi\STM8S005K6_JL\stm8s005_template\EWARM\Debug\Obj\led.o
#        H:\SiShengShiyanJidi\STM8S005K6_JL\stm8s005_template\EWARM\Debug\Obj\lowpower.o
#        H:\SiShengShiyanJidi\STM8S005K6_JL\stm8s005_template\EWARM\Debug\Obj\main.o
#        H:\SiShengShiyanJidi\STM8S005K6_JL\stm8s005_template\EWARM\Debug\Obj\motor.o
#        H:\SiShengShiyanJidi\STM8S005K6_JL\stm8s005_template\EWARM\Debug\Obj\rtc8025t.o
#        H:\SiShengShiyanJidi\STM8S005K6_JL\stm8s005_template\EWARM\Debug\Obj\spi.o
#        H:\SiShengShiyanJidi\STM8S005K6_JL\stm8s005_template\EWARM\Debug\Obj\stm8s_adc1.o
#        H:\SiShengShiyanJidi\STM8S005K6_JL\stm8s005_template\EWARM\Debug\Obj\stm8s_awu.o
#        H:\SiShengShiyanJidi\STM8S005K6_JL\stm8s005_template\EWARM\Debug\Obj\stm8s_beep.o
#        H:\SiShengShiyanJidi\STM8S005K6_JL\stm8s005_template\EWARM\Debug\Obj\stm8s_clk.o
#        H:\SiShengShiyanJidi\STM8S005K6_JL\stm8s005_template\EWARM\Debug\Obj\stm8s_exti.o
#        H:\SiShengShiyanJidi\STM8S005K6_JL\stm8s005_template\EWARM\Debug\Obj\stm8s_flash.o
#        H:\SiShengShiyanJidi\STM8S005K6_JL\stm8s005_template\EWARM\Debug\Obj\stm8s_gpio.o
#        H:\SiShengShiyanJidi\STM8S005K6_JL\stm8s005_template\EWARM\Debug\Obj\stm8s_i2c.o
#        H:\SiShengShiyanJidi\STM8S005K6_JL\stm8s005_template\EWARM\Debug\Obj\stm8s_it.o
#        H:\SiShengShiyanJidi\STM8S005K6_JL\stm8s005_template\EWARM\Debug\Obj\stm8s_itc.o
#        H:\SiShengShiyanJidi\STM8S005K6_JL\stm8s005_template\EWARM\Debug\Obj\stm8s_iwdg.o
#        H:\SiShengShiyanJidi\STM8S005K6_JL\stm8s005_template\EWARM\Debug\Obj\stm8s_rst.o
#        H:\SiShengShiyanJidi\STM8S005K6_JL\stm8s005_template\EWARM\Debug\Obj\stm8s_spi.o
#        H:\SiShengShiyanJidi\STM8S005K6_JL\stm8s005_template\EWARM\Debug\Obj\stm8s_tim1.o
#        H:\SiShengShiyanJidi\STM8S005K6_JL\stm8s005_template\EWARM\Debug\Obj\stm8s_tim2.o
#        H:\SiShengShiyanJidi\STM8S005K6_JL\stm8s005_template\EWARM\Debug\Obj\stm8s_tim3.o
#        H:\SiShengShiyanJidi\STM8S005K6_JL\stm8s005_template\EWARM\Debug\Obj\stm8s_tim4.o
#        H:\SiShengShiyanJidi\STM8S005K6_JL\stm8s005_template\EWARM\Debug\Obj\stm8s_uart2.o
#        H:\SiShengShiyanJidi\STM8S005K6_JL\stm8s005_template\EWARM\Debug\Obj\stm8s_wwdg.o
#        H:\SiShengShiyanJidi\STM8S005K6_JL\stm8s005_template\EWARM\Debug\Obj\tim4.o
#        H:\SiShengShiyanJidi\STM8S005K6_JL\stm8s005_template\EWARM\Debug\Obj\uart2.o
#        --no_out_extension -o
#        H:\SiShengShiyanJidi\STM8S005K6_JL\stm8s005_template\EWARM\Debug\Exe\stm8s005_template.out
#        --map
#        H:\SiShengShiyanJidi\STM8S005K6_JL\stm8s005_template\EWARM\Debug\List\stm8s005_template.map
#        --config "C:\Program Files (x86)\IAR Systems\Embedded Workbench
#        8.3\stm8\config\lnkstm8s005k6.icf" --config_def _CSTACK_SIZE=0x200
#        --config_def _HEAP_SIZE=0x100 --entry __iar_program_start --debug_lib)
#
###############################################################################

*******************************************************************************
*** RUNTIME MODEL ATTRIBUTES
***

__Heap_Handler             = Basic
__SystemLibrary            = DLib
__code_model               = medium_or_large
__core                     = stm8
__data_model               = medium
__dlib_file_descriptor     = 1
__dlib_full_locale_support = 1
__rt_version               = 4


*******************************************************************************
*** PLACEMENT SUMMARY
***

"A0":  place at start of [0x000000-0x0000ff] { rw section .vregs };
"A1":  place at end of [0x000000-0x0007ff] { block CSTACK };
"P2":  place in [from 0x000000 to 0x0007ff] {
          block HEAP, rw section __DLIB_PERTHREAD, rw section .far.bss,
          rw section .far.data, rw section .far.noinit,
          rw section .far_func.textrw, rw section .huge.bss,
          rw section .huge.data, rw section .huge.noinit,
          rw section .huge_func.textrw, rw section .iar.dynexit,
          rw section .near.bss, rw section .near.data, rw section .near.noinit,
          rw section .near_func.textrw };
"A2":  place at start of [0x008000-0x00ffff] { block INTVEC };
"P3":  place in [from 0x008000 to 0x00ffff] {
          ro section __DLIB_PERTHREAD_init, ro section .far.data_init,
          ro section .far_func.textrw_init, ro section .huge.data_init,
          ro section .huge_func.textrw_init, ro section .iar.init_table,
          ro section .init_array, ro section .near.data_init,
          ro section .near.rodata, ro section .near_func.text,
          ro section .near_func.textrw_init, ro section .tiny.data_init,
          ro section .tiny.rodata_init };
"P4":  place in [from 0x008000 to 0x00ffff] {
          ro section .far.rodata, ro section .far_func.text };
"P5":  place in [from 0x008000 to 0x00ffff] {
          ro section .huge.rodata, ro section .huge_func.text };
do not initialize {
   rw section .eeprom.noinit, rw section .far.noinit, rw section .huge.noinit,
   rw section .near.noinit, rw section .tiny.noinit, rw section .vregs };
initialize by copy {
   rw section .far.bss, rw section .far.data, rw section .far_func.textrw,
   rw section .huge.bss, rw section .huge.data, rw section .huge_func.textrw,
   rw section .iar.dynexit, rw section .near.bss, rw section .near.data,
   rw section .near_func.textrw, rw section .tiny.bss, rw section .tiny.data,
   ro section .tiny.rodata };

No sections matched the following patterns:

  ro section .far.data_init          in "P3-P5"
  ro section .far.rodata             in "P3-P5"
  ro section .far_func.textrw_init   in "P3-P5"
  ro section .huge.data_init         in "P3-P5"
  ro section .huge.rodata            in "P3-P5"
  ro section .huge_func.text         in "P3-P5"
  ro section .huge_func.textrw_init  in "P3-P5"
  ro section .iar.init_table         in "P3-P5"
  ro section .init_array             in "P3-P5"
  ro section .near_func.text         in "P3-P5"
  ro section .near_func.textrw_init  in "P3-P5"
  ro section .tiny.data_init         in "P3-P5"
  ro section .tiny.rodata_init       in "P3-P5"
  ro section __DLIB_PERTHREAD_init   in "P3-P5"
  rw section .far.bss                in "P2"
  rw section .far.data               in "P2"
  rw section .far.noinit             in "P2"
  rw section .far_func.textrw        in "P2"
  rw section .huge.bss               in "P2"
  rw section .huge.data              in "P2"
  rw section .huge.noinit            in "P2"
  rw section .huge_func.textrw       in "P2"
  rw section .iar.dynexit            in "P2"
  rw section .near.noinit            in "P2"
  rw section .near_func.textrw       in "P2"
  rw section .tiny.bss               in "P1"
  rw section .tiny.data              in "P1"
  rw section .tiny.noinit            in "P1"
  rw section .tiny.rodata            in "P1"
  rw section __DLIB_PERTHREAD        in "P2"
  section .eeprom.data               in "P6-P8"
  section .eeprom.noinit             in "P6-P8"
  section .eeprom.rodata             in "P6-P8"


  Section            Kind      Address    Size  Object
  -------            ----      -------    ----  ------
"A0":                                     0x10
  .vregs             uninit   0x000000    0x10  vregs.o [4]
                            - 0x000010    0x10

"P2", part 1 of 2:                        0x30
  P2-1                        0x000010    0x30  <Init block>
    .near.data       inited   0x000010     0x1  key.o [1]
    .near.data       inited   0x000011     0x1  key.o [1]
    .near.data       inited   0x000012     0x1  key.o [1]
    .near.data       inited   0x000013     0x5  uart2.o [1]
    .near.data       inited   0x000018    0x28  xfiles.o [4]
                            - 0x000040    0x30

"P2", part 2 of 2:                        0xbf
  .near.bss          zero     0x000040    0x50  xfiles.o [4]
  .near.bss          zero     0x000090    0x3a  dl645.o [1]
  .near.bss          zero     0x0000ca     0xf  device_info.o [1]
  .near.bss          zero     0x0000d9     0xa  stm8s_it.o [1]
  .near.bss          zero     0x0000e3     0x9  uart2.o [1]
  .near.bss          zero     0x0000ec     0x4  tim4.o [1]
  .near.bss          zero     0x0000f0     0x2  dl645.o [1]
  .near.bss          zero     0x0000f2     0x2  dl645.o [1]
  .near.bss          zero     0x0000f4     0x2  led.o [1]
  .near.bss          zero     0x0000f6     0x2  motor.o [1]
  .near.bss          zero     0x0000f8     0x2  uart2.o [1]
  .near.bss          zero     0x0000fa     0x1  bluetooth.o [1]
  .near.bss          zero     0x0000fb     0x1  main.o [1]
  .near.bss          zero     0x0000fc     0x1  motor.o [1]
  .near.bss          zero     0x0000fd     0x1  stm8s_it.o [1]
  .near.bss          zero     0x0000fe     0x1  stm8s_it.o [1]
                            - 0x0000ff    0xbf

"A1":                                    0x200
  CSTACK                      0x000600   0x200  <Block>
    CSTACK           uninit   0x000600   0x200  <Block tail>
                            - 0x000800   0x200

"A2":                                     0x80
  INTVEC                      0x008000    0x80  <Block>
    .intvec          const    0x008000    0x80  interrupt.o [4]
                            - 0x008080    0x80

"P3-P5":                                0x29f6
  .far_func.text     ro code  0x008080   0x40b  xprintfsmall_nomb.o [4]
  .far_func.text     ro code  0x00848b   0x25f  stm8s_uart2.o [1]
  .far_func.text     ro code  0x0086ea   0x1ea  uart2.o [1]
  .far_func.text     ro code  0x0088d4   0x188  long.o [4]
  .far_func.text     ro code  0x008a5c   0x181  xprintfsmall_nomb.o [4]
  .far_func.text     ro code  0x008bdd   0x15e  dl645.o [1]
  .far_func.text     ro code  0x008d3b   0x15a  bluetooth.o [1]
  .far_func.text     ro code  0x008e95   0x14a  device_info.o [1]
  .far_func.text     ro code  0x008fdf   0x114  vreg_util.o [4]
  .far_func.text     ro code  0x0090f3    0xfe  bluetooth.o [1]
  .far_func.text     ro code  0x0091f1    0xef  stm8s_it.o [1]
  .far_func.text     ro code  0x0092e0    0xea  dl645.o [1]
  .far_func.text     ro code  0x0093ca    0xe0  stm8s_uart2.o [1]
  .far_func.text     ro code  0x0094aa    0xdd  stm8s_gpio.o [1]
  .far_func.text     ro code  0x009587    0xcb  ht7017.o [1]
  .far_func.text     ro code  0x009652    0xca  dl645.o [1]
  .far_func.text     ro code  0x00971c    0xc2  stm8s_uart2.o [1]
  .far_func.text     ro code  0x0097de    0x88  dl645.o [1]
  .far_func.text     ro code  0x009866    0x86  motor.o [1]
  .far_func.text     ro code  0x0098ec    0x86  stm8s_uart2.o [1]
  .far_func.text     ro code  0x009972    0x83  dl645.o [1]
  .far_func.text     ro code  0x0099f5    0x82  stm8s_flash.o [1]
  .far_func.text     ro code  0x009a77    0x78  main.o [1]
  .far_func.text     ro code  0x009aef    0x78  stm8s_flash.o [1]
  .far_func.text     ro code  0x009b67    0x76  uart2.o [1]
  .far_func.text     ro code  0x009bdd    0x75  device_info.o [1]
  .far_func.text     ro code  0x009c52    0x6c  stm8s_it.o [1]
  .far_func.text     ro code  0x009cbe    0x60  strstr.o [4]
  .far_func.text     ro code  0x009d1e    0x5e  dl645.o [1]
  .far_func.text     ro code  0x009d7c    0x53  main.o [1]
  .far_func.text     ro code  0x009dcf    0x52  bluetooth.o [1]
  .far_func.text     ro code  0x009e21    0x50  stm8s_tim4.o [1]
  .near.rodata       const    0x009e71    0x4d  stm8s_flash.o [1]
  .near.rodata       const    0x009ebe    0x4d  stm8s_uart2.o [1]
  .near.rodata       const    0x009f0b    0x4c  stm8s_gpio.o [1]
  .near.rodata       const    0x009f57    0x4c  stm8s_tim4.o [1]
  .near.rodata       const    0x009fa3    0x4b  stm8s_clk.o [1]
  .far_func.text     ro code  0x009fee    0x4a  stm8s_tim4.o [1]
  .far_func.text     ro code  0x00a038    0x45  xprintfsmall_nomb.o [4]
  .far_func.text     ro code  0x00a07d    0x44  sprintf.o [4]
  .far_func.text     ro code  0x00a0c1    0x41  stm8s_clk.o [1]
  .far_func.text     ro code  0x00a102    0x3e  key.o [1]
  .far_func.text     ro code  0x00a140    0x3e  uart2.o [1]
  .far_func.text     ro code  0x00a17e    0x3e  long_util.o [4]
  .far_func.text     ro code  0x00a1bc    0x3e  xprintfsmall_nomb.o [4]
  .far_func.text     ro code  0x00a1fa    0x3d  xprintfsmall_nomb.o [4]
  .far_func.text     ro code  0x00a237    0x37  tim4.o [1]
  .far_func.text     ro code  0x00a26e    0x36  stm8s_clk.o [1]
  .far_func.text     ro code  0x00a2a4    0x36  stm8s_clk.o [1]
  .far_func.text     ro code  0x00a2da    0x36  uart2.o [1]
  .far_func.text     ro code  0x00a310    0x35  tim4.o [1]
  .far_func.text     ro code  0x00a345    0x35  strncmp.o [4]
  .far_func.text     ro code  0x00a37a    0x30  motor.o [1]
  .far_func.text     ro code  0x00a3aa    0x30  memcmp.o [4]
  Initializer bytes  const    0x00a3da    0x30  <for P2-1>
  .far_func.text     ro code  0x00a40a    0x2e  xprintfsmall_nomb.o [4]
  .far_func.text     ro code  0x00a438    0x2d  stm8s_uart2.o [1]
  .near.rodata       const    0x00a465    0x2d  main.o [1]
  .far_func.text     ro code  0x00a492    0x2a  uart2.o [1]
  .far_func.text     ro code  0x00a4bc    0x29  stm8s_flash.o [1]
  .far_func.text     ro code  0x00a4e5    0x29  stm8s_flash.o [1]
  .far_func.text     ro code  0x00a50e    0x28  stm8s_flash.o [1]
  .far_func.text     ro code  0x00a536    0x28  far_util.o [4]
  .far_func.text     ro code  0x00a55e    0x28  init_small.o [4]
  .far_func.text     ro code  0x00a586    0x27  stm8s_uart2.o [1]
  .far_func.text     ro code  0x00a5ad    0x26  short.o [4]
  .near.rodata       const    0x00a5d3    0x25  bluetooth.o [1]
  .far_func.text     ro code  0x00a5f8    0x24  printf.o [4]
  .far_func.text     ro code  0x00a61c    0x23  key.o [1]
  .far_func.text     ro code  0x00a63f    0x22  stm8s_tim4.o [1]
  .far_func.text     ro code  0x00a661    0x22  stm8s_tim4.o [1]
  .far_func.text     ro code  0x00a683    0x22  uart2.o [1]
  .far_func.text     ro code  0x00a6a5    0x21  memchr.o [4]
  .iar.init_table    const    0x00a6c6    0x14  - Linker created -
  .far_func.text     ro code  0x00a6da    0x20  motor.o [1]
  .far_func.text     ro code  0x00a6fa    0x20  tim4.o [1]
  .far_func.text     ro code  0x00a71a    0x1f  stm8s_tim4.o [1]
  .far_func.text     ro code  0x00a739    0x1f  xprout.o [4]
  .far_func.text     ro code  0x00a758    0x1e  init.o [4]
  .far_func.text     ro code  0x00a776    0x1e  init_small.o [4]
  .far_func.text     ro code  0x00a794    0x1c  motor.o [1]
  .far_func.text     ro code  0x00a7b0    0x1b  motor.o [1]
  .far_func.text     ro code  0x00a7cb    0x1b  motor.o [1]
  .near.rodata       const    0x00a7e6    0x1b  bluetooth.o [1]
  .far_func.text     ro code  0x00a801    0x1a  hall.o [1]
  .far_func.text     ro code  0x00a81b    0x1a  led.o [1]
  .far_func.text     ro code  0x00a835    0x18  main.o [1]
  .far_func.text     ro code  0x00a84d    0x17  cstartup.o [4]
  .far_func.text     ro code  0x00a864    0x16  led.o [1]
  .far_func.text     ro code  0x00a87a    0x16  led.o [1]
  .far_func.text     ro code  0x00a890    0x16  memset.o [4]
  .far_func.text     ro code  0x00a8a6    0x16  __dbg_xxexit.o [3]
  .far_func.text     ro code  0x00a8bc    0x15  xprintfsmall_nomb.o [4]
  .far_func.text     ro code  0x00a8d1    0x15  strchr.o [4]
  .near.rodata       const    0x00a8e6    0x13  uart2.o [1]
  .near.rodata       const    0x00a8f9     0xe  key.o [1]
  .near.rodata       const    0x00a907     0xe  key.o [1]
  .near.rodata       const    0x00a915     0xe  uart2.o [1]
  .near.rodata       const    0x00a923     0xe  uart2.o [1]
  .far_func.text     ro code  0x00a931     0xd  key.o [1]
  .far_func.text     ro code  0x00a93e     0xd  stm8s_uart2.o [1]
  .far_func.text     ro code  0x00a94b     0xd  move.o [4]
  .far_func.text     ro code  0x00a958     0xd  strlen.o [4]
  .far_func.text     ro code  0x00a965     0xc  xprintfsmall_nomb.o [4]
  .near.rodata       const    0x00a971     0xc  bluetooth.o [1]
  .far_func.text     ro code  0x00a97d     0xb  xsprout.o [4]
  .far_func.text     ro code  0x00a988     0xb  xprintfsmall_nomb.o [4]
  .near.rodata       const    0x00a993     0xb  bluetooth.o [1]
  .near.rodata       const    0x00a99e     0xa  bluetooth.o [1]
  .near.rodata       const    0x00a9a8     0xa  bluetooth.o [1]
  .near.rodata       const    0x00a9b2     0xa  bluetooth.o [1]
  .near.rodata       const    0x00a9bc     0xa  uart2.o [1]
  .near.rodata       const    0x00a9c6     0xa  uart2.o [1]
  .near.rodata       const    0x00a9d0     0xa  uart2.o [1]
  .near.rodata       const    0x00a9da     0xa  uart2.o [1]
  .far_func.text     ro code  0x00a9e4     0x9  led.o [1]
  .near.rodata       const    0x00a9ed     0x9  bluetooth.o [1]
  .far_func.text     ro code  0x00a9f6     0x8  putchar.o [4]
  .far_func.text     ro code  0x00a9fe     0x8  xprintfsmall_nomb.o [4]
  .far_func.text     ro code  0x00aa06     0x7  stm8s_gpio.o [1]
  .far_func.text     ro code  0x00aa0d     0x7  stm8s_gpio.o [1]
  .far_func.text     ro code  0x00aa14     0x7  stm8s_gpio.o [1]
  .near.rodata       const    0x00aa1b     0x7  xprintfsmall_nomb.o [4]
  .far_func.text     ro code  0x00aa22     0x6  cexit.o [4]
  .far_func.text     ro code  0x00aa28     0x6  xprintfsmall_nomb.o [4]
  .near.rodata       const    0x00aa2e     0x6  uart2.o [1]
  .near.rodata       const    0x00aa34     0x5  ht7017.o [1]
  .near.rodata       const    0x00aa39     0x5  ht7017.o [1]
  .far_func.text     ro code  0x00aa3e     0x4  stm8s_gpio.o [1]
  .far_func.text     ro code  0x00aa42     0x4  stm8s_uart2.o [1]
  .far_func.text     ro code  0x00aa46     0x4  stm8s_uart2.o [1]
  .far_func.text     ro code  0x00aa4a     0x4  interrupt.o [4]
  .far_func.text     ro code  0x00aa4e     0x4  exit.o [4]
  .near.rodata       const    0x00aa52     0x4  stm8s_clk.o [1]
  .far_func.text     ro code  0x00aa56     0x3  low_level_init.o [4]
  .far_func.text     ro code  0x00aa59     0x3  unhandled_exception.o [4]
  .near.rodata       const    0x00aa5c     0x3  bluetooth.o [1]
  .near.rodata       const    0x00aa5f     0x2  main.o [1]
  .far_func.text     ro code  0x00aa61     0x1  stm8s_it.o [1]
  .far_func.text     ro code  0x00aa62     0x1  stm8s_it.o [1]
  .far_func.text     ro code  0x00aa63     0x1  stm8s_it.o [1]
  .far_func.text     ro code  0x00aa64     0x1  stm8s_it.o [1]
  .far_func.text     ro code  0x00aa65     0x1  stm8s_it.o [1]
  .far_func.text     ro code  0x00aa66     0x1  stm8s_it.o [1]
  .far_func.text     ro code  0x00aa67     0x1  stm8s_it.o [1]
  .far_func.text     ro code  0x00aa68     0x1  stm8s_it.o [1]
  .far_func.text     ro code  0x00aa69     0x1  stm8s_it.o [1]
  .far_func.text     ro code  0x00aa6a     0x1  stm8s_it.o [1]
  .far_func.text     ro code  0x00aa6b     0x1  stm8s_it.o [1]
  .far_func.text     ro code  0x00aa6c     0x1  stm8s_it.o [1]
  .far_func.text     ro code  0x00aa6d     0x1  stm8s_it.o [1]
  .far_func.text     ro code  0x00aa6e     0x1  stm8s_it.o [1]
  .far_func.text     ro code  0x00aa6f     0x1  stm8s_it.o [1]
  .far_func.text     ro code  0x00aa70     0x1  stm8s_it.o [1]
  .far_func.text     ro code  0x00aa71     0x1  stm8s_it.o [1]
  .far_func.text     ro code  0x00aa72     0x1  stm8s_it.o [1]
  .far_func.text     ro code  0x00aa73     0x1  stm8s_it.o [1]
  .far_func.text     ro code  0x00aa74     0x1  stm8s_it.o [1]
  .far_func.text     ro code  0x00aa75     0x1  __dbg_break.o [3]
                            - 0x00aa76  0x29f6


*******************************************************************************
*** INIT TABLE
***

          Address   Size
          -------   ----
Zero (__iar_zero_init2)
    1 destination range, total size 0xbf:
          0x000040  0xbf

Copy (__iar_copy_init2)
    1 source range, total size 0x30:
          0x00a3da  0x30
    1 destination range, total size 0x30:
          0x000010  0x30



*******************************************************************************
*** MODULE SUMMARY
***

    Module                 ro code  ro data  rw data
    ------                 -------  -------  -------
H:\SiShengShiyanJidi\STM8S005K6_JL\stm8s005_template\EWARM\Debug\Obj: [1]
    bluetooth.o                682      129        1
    device_info.o              447                15
    dl645.o                  1 147                62
    hall.o                      26
    ht7017.o                   203       10
    key.o                      110       31        3
    led.o                       79                 2
    main.o                     227       47        1
    motor.o                    296                 3
    stm8s_clk.o                173       79
    stm8s_flash.o              372       77
    stm8s_gpio.o               246       76
    stm8s_it.o                 367                12
    stm8s_tim4.o               253       76
    stm8s_uart2.o            1 264       77
    tim4.o                     140                 4
    uart2.o                    800       98       16
    ------------------------------------------------
    Total:                   6 832      700      119

command line: [2]
    ------------------------------------------------
    Total:

dbgstm8mmd.a: [3]
    __dbg_break.o                1
    __dbg_xxexit.o              22
    ------------------------------------------------
    Total:                      23

dlstm8mmf.a: [4]
    cexit.o                      6
    cstartup.o                  23
    exit.o                       4
    far_util.o                  40
    init.o                      30
    init_small.o                70
    interrupt.o                  4      128
    long.o                     392
    long_util.o                 62
    low_level_init.o             3
    memchr.o                    33
    memcmp.o                    48
    memset.o                    22
    move.o                      13
    printf.o                    36
    putchar.o                    8
    short.o                     38
    sprintf.o                   68
    strchr.o                    21
    strlen.o                    13
    strncmp.o                   53
    strstr.o                    96
    unhandled_exception.o        3
    vreg_util.o                276
    vregs.o                                       16
    xfiles.o                             40      120
    xprintfsmall_nomb.o      1 716        7
    xprout.o                    31
    xsprout.o                   11
    ------------------------------------------------
    Total:                   3 120      175      136

    Linker created                       20      512
----------------------------------------------------
    Grand Total:             9 975      895      767


*******************************************************************************
*** ENTRY LIST
***

Entry                    Address   Size  Type      Object
-----                    -------   ----  ----      ------
.iar.init_table$$Base   0x00a6c6          --   Gb  - Linker created -
.iar.init_table$$Limit  0x00a6da          --   Gb  - Linker created -
?add32_l0_l0_0x         0x0088fa         Code  Gb  long.o [4]
?add32_l0_l0_l1         0x0088f7         Code  Gb  long.o [4]
?and32_l0_l0_0x         0x008a1b         Code  Gb  long.o [4]
?and32_l0_l0_l1         0x008a18         Code  Gb  long.o [4]
?b0                     0x000000         Data  Gb  vregs.o [4]
?b1                     0x000001         Data  Gb  vregs.o [4]
?b10                    0x00000a         Data  Gb  vregs.o [4]
?b11                    0x00000b         Data  Gb  vregs.o [4]
?b12                    0x00000c         Data  Gb  vregs.o [4]
?b13                    0x00000d         Data  Gb  vregs.o [4]
?b14                    0x00000e         Data  Gb  vregs.o [4]
?b15                    0x00000f         Data  Gb  vregs.o [4]
?b2                     0x000002         Data  Gb  vregs.o [4]
?b3                     0x000003         Data  Gb  vregs.o [4]
?b4                     0x000004         Data  Gb  vregs.o [4]
?b5                     0x000005         Data  Gb  vregs.o [4]
?b6                     0x000006         Data  Gb  vregs.o [4]
?b7                     0x000007         Data  Gb  vregs.o [4]
?b8                     0x000008         Data  Gb  vregs.o [4]
?b9                     0x000009         Data  Gb  vregs.o [4]
?e0                     0x000001         Data  Gb  vregs.o [4]
?e1                     0x000005         Data  Gb  vregs.o [4]
?e2                     0x000009         Data  Gb  vregs.o [4]
?e3                     0x00000d         Data  Gb  vregs.o [4]
?epilogue_l2            0x0090a6         Code  Gb  vreg_util.o [4]
?epilogue_w4            0x0090ab         Code  Gb  vreg_util.o [4]
?inc32_0x_0x            0x0088e9         Code  Gb  long.o [4]
?inc32_l2_l2            0x0088e4         Code  Gb  long.o [4]
?l0                     0x000000         Data  Gb  vregs.o [4]
?l1                     0x000004         Data  Gb  vregs.o [4]
?l2                     0x000008         Data  Gb  vregs.o [4]
?l3                     0x00000c         Data  Gb  vregs.o [4]
?load24_e0_0x           0x00a542         Code  Gb  far_util.o [4]
?load24_e0_asp          0x00a536         Code  Gb  far_util.o [4]
?load24_e0_xsp          0x00a538         Code  Gb  far_util.o [4]
?load24_e1_0x           0x00a550         Code  Gb  far_util.o [4]
?load32_0x_l0           0x00a1ae         Code  Gb  long_util.o [4]
?load32_l0_0x           0x00a198         Code  Gb  long_util.o [4]
?load32_l0_asp          0x00a18c         Code  Gb  long_util.o [4]
?load32_l0_dbsp         0x00a17e         Code  Gb  long_util.o [4]
?load32_l0_xsp          0x00a18e         Code  Gb  long_util.o [4]
?load32_xsp_l0          0x00a1a4         Code  Gb  long_util.o [4]
?mov_e0_e2              0x0090cf         Code  Gb  vreg_util.o [4]
?mov_e1_e0              0x0090dc         Code  Gb  vreg_util.o [4]
?mov_e2_e0              0x0090e9         Code  Gb  vreg_util.o [4]
?mov_l0_l2              0x0090cc         Code  Gb  vreg_util.o [4]
?mov_l1_l0              0x0090d9         Code  Gb  vreg_util.o [4]
?mov_l2_l0              0x0090e6         Code  Gb  vreg_util.o [4]
?mov_w0_w2              0x0090b0         Code  Gb  vreg_util.o [4]
?mov_w0_w5              0x0090b7         Code  Gb  vreg_util.o [4]
?mov_w1_w5              0x0090d2         Code  Gb  vreg_util.o [4]
?mov_w2_w0              0x0090be         Code  Gb  vreg_util.o [4]
?mov_w3_w1              0x0090df         Code  Gb  vreg_util.o [4]
?mov_w4_w0              0x0090c5         Code  Gb  vreg_util.o [4]
?mov_w5_w1              0x0090ec         Code  Gb  vreg_util.o [4]
?move1616_v_x_y_a       0x00a94b         Code  Gb  move.o [4]
?mul16_x_x_w0           0x00a5ad         Code  Gb  short.o [4]
?mul32_l0_l0_l1         0x00892d         Code  Gb  long.o [4]
?neg32_l0_l0            0x0088d4         Code  Gb  long.o [4]
?pop_e2                 0x00904b         Code  Gb  vreg_util.o [4]
?pop_l2                 0x00908f         Code  Gb  vreg_util.o [4]
?pop_w4                 0x009000         Code  Gb  vreg_util.o [4]
?push_e0                0x009013         Code  Gb  vreg_util.o [4]
?push_e2                0x00902f         Code  Gb  vreg_util.o [4]
?push_l2                0x009069         Code  Gb  vreg_util.o [4]
?push_w2                0x008fdf         Code  Gb  vreg_util.o [4]
?push_w4                0x008fe4         Code  Gb  vreg_util.o [4]
?sext32_l0_a            0x008a4f         Code  Gb  long.o [4]
?sext32_l0_x            0x008a44         Code  Gb  long.o [4]
?sll16_x_x_a            0x00a5cb         Code  Gb  short.o [4]
?sll32_0x_0x_a          0x008a36         Code  Gb  long.o [4]
?sll32_l0_l0_a          0x008a33         Code  Gb  long.o [4]
?sub32_l0_l0_0x         0x008915         Code  Gb  long.o [4]
?sub32_l0_l0_l1         0x008912         Code  Gb  long.o [4]
?udiv32_l0_l0_l1        0x0089ab         Code  Gb  long.o [4]
?umod32_l1_l0_l1        0x0089ab         Code  Gb  long.o [4]
?w0                     0x000000         Data  Gb  vregs.o [4]
?w1                     0x000002         Data  Gb  vregs.o [4]
?w2                     0x000004         Data  Gb  vregs.o [4]
?w3                     0x000006         Data  Gb  vregs.o [4]
?w4                     0x000008         Data  Gb  vregs.o [4]
?w5                     0x00000a         Data  Gb  vregs.o [4]
?w6                     0x00000c         Data  Gb  vregs.o [4]
?w7                     0x00000e         Data  Gb  vregs.o [4]
ADC1_IRQHandler         0x00aa73    0x1  Code  Gb  stm8s_it.o [1]
AWU_IRQHandler          0x00aa63    0x1  Code  Gb  stm8s_it.o [1]
BlueCnt                 0x0000fa    0x1  Data  Gb  bluetooth.o [1]
BlueTooth_Init          0x008d3b  0x15a  Code  Gb  bluetooth.o [1]
BlueTooth_SendCmd       0x009dcf   0x52  Code  Gb  bluetooth.o [1]
BlueTooth_SetName       0x0090f3   0xfe  Code  Gb  bluetooth.o [1]
CLK_DeInit              0x00a26e   0x36  Code  Gb  stm8s_clk.o [1]
CLK_GetClockFreq        0x00a0c1   0x41  Code  Gb  stm8s_clk.o [1]
CLK_HSIPrescalerConfig  0x00a2a4   0x36  Code  Gb  stm8s_clk.o [1]
CLK_IRQHandler          0x00aa64    0x1  Code  Gb  stm8s_it.o [1]
CSTACK$$Base            0x000600          --   Gb  - Linker created -
CSTACK$$Limit           0x000800          --   Gb  - Linker created -
DL645_ChangeID          0x0000f0    0x2  Data  Gb  dl645.o [1]
DL645_Data              0x000090   0x3a  Data  Gb  dl645.o [1]
DL645_Device_Control    0x009972   0x83  Code  Gb  dl645.o [1]
DL645_Protocol          0x008bdd  0x15e  Code  Gb  dl645.o [1]
DL645_ReadAddr          0x009d1e   0x5e  Code  Gb  dl645.o [1]
DL645_ReadData          0x009652   0xca  Code  Gb  dl645.o [1]
DL645_Send              0x0092e0   0xea  Code  Gb  dl645.o [1]
DL645_TxFlag            0x0000f2    0x2  Data  Gb  dl645.o [1]
DL645_WriteAddr         0x0097de   0x88  Code  Gb  dl645.o [1]
Delay_MS                0x00a237   0x37  Code  Gb  tim4.o [1]
E2Write                 0x009bdd   0x75  Code  Gb  device_info.o [1]
EEPROM_EEC_IRQHandler   0x00aa74    0x1  Code  Gb  stm8s_it.o [1]
EXTI_PORTA_IRQHandler   0x00aa65    0x1  Code  Gb  stm8s_it.o [1]
EXTI_PORTB_IRQHandler   0x00aa66    0x1  Code  Gb  stm8s_it.o [1]
EXTI_PORTC_IRQHandler   0x00aa67    0x1  Code  Gb  stm8s_it.o [1]
EXTI_PORTD_IRQHandler   0x00aa68    0x1  Code  Gb  stm8s_it.o [1]
EXTI_PORTE_IRQHandler   0x00aa69    0x1  Code  Gb  stm8s_it.o [1]
FLASH_Lock              0x00a50e   0x28  Code  Gb  stm8s_flash.o [1]
FLASH_ProgramByte       0x0099f5   0x82  Code  Gb  stm8s_flash.o [1]
FLASH_ReadByte          0x009aef   0x78  Code  Gb  stm8s_flash.o [1]
FLASH_SetProgrammingTime
                        0x00a4e5   0x29  Code  Gb  stm8s_flash.o [1]
FLASH_Unlock            0x00a4bc   0x29  Code  Gb  stm8s_flash.o [1]
GPIO_Init               0x0094aa   0xdd  Code  Gb  stm8s_gpio.o [1]
GPIO_ReadInputPin       0x00aa14    0x7  Code  Gb  stm8s_gpio.o [1]
GPIO_WriteHigh          0x00aa06    0x7  Code  Gb  stm8s_gpio.o [1]
GPIO_WriteLow           0x00aa3e    0x4  Code  Gb  stm8s_gpio.o [1]
GPIO_WriteReverse       0x00aa0d    0x7  Code  Gb  stm8s_gpio.o [1]
HSIDivFactor            0x00aa52    0x4  Data  Gb  stm8s_clk.o [1]
Hall_Init               0x00a801   0x1a  Code  Gb  hall.o [1]
I2C_IRQHandler          0x00aa71    0x1  Code  Gb  stm8s_it.o [1]
INTVEC$$Base            0x008000          --   Gb  - Linker created -
INTVEC$$Limit           0x008080          --   Gb  - Linker created -
KeySta                  0x000010    0x1  Data  Gb  key.o [1]
Key_Driver              0x00a61c   0x23  Code  Gb  key.o [1]
Key_Driver::bck         0x000012    0x1  Data  Lc  key.o [1]
Key_Init                0x00a931    0xd  Code  Gb  key.o [1]
Key_Scan                0x00a102   0x3e  Code  Gb  key.o [1]
Key_Scan::buf           0x000011    0x1  Data  Lc  key.o [1]
Led1_Flash              0x00a81b   0x1a  Code  Gb  led.o [1]
Led1_Flash::div         0x0000f4    0x2  Data  Lc  led.o [1]
Led1_Init               0x00a864   0x16  Code  Gb  led.o [1]
Led1_Reverse            0x00a9e4    0x9  Code  Gb  led.o [1]
Led2_Init               0x00a87a   0x16  Code  Gb  led.o [1]
LoadInt                 0x00a038   0x45  Code  Lc  xprintfsmall_nomb.o [4]
Motor_Clockwise         0x00a7cb   0x1b  Code  Gb  motor.o [1]
Motor_Counterclockwise  0x00a7b0   0x1b  Code  Gb  motor.o [1]
Motor_Driver            0x009866   0x86  Code  Gb  motor.o [1]
Motor_Init              0x00a37a   0x30  Code  Gb  motor.o [1]
Motor_RunSta            0x0000fc    0x1  Data  Gb  motor.o [1]
Motor_RunTime           0x0000f6    0x2  Data  Gb  motor.o [1]
Motor_RunTimeCount      0x00a794   0x1c  Code  Gb  motor.o [1]
Motor_Stop              0x00a6da   0x20  Code  Gb  motor.o [1]
ReadDeviceInfo          0x008e95  0x14a  Code  Gb  device_info.o [1]
Region$$Table$$Base     0x00a6c6          --   Gb  - Linker created -
Region$$Table$$Limit    0x00a6da          --   Gb  - Linker created -
SPI_IRQHandler          0x00aa6a    0x1  Code  Gb  stm8s_it.o [1]
Stop                    0x000013    0x5  Data  Lc  uart2.o [1]
TIM1_CAP_COM_IRQHandler
                        0x00aa6c    0x1  Code  Gb  stm8s_it.o [1]
TIM1_UPD_OVF_TRG_BRK_IRQHandler
                        0x00aa6b    0x1  Code  Gb  stm8s_it.o [1]
TIM2_CAP_COM_IRQHandler
                        0x00aa6e    0x1  Code  Gb  stm8s_it.o [1]
TIM2_UPD_OVF_BRK_IRQHandler
                        0x00aa6d    0x1  Code  Gb  stm8s_it.o [1]
TIM3_CAP_COM_IRQHandler
                        0x00aa70    0x1  Code  Gb  stm8s_it.o [1]
TIM3_UPD_OVF_BRK_IRQHandler
                        0x00aa6f    0x1  Code  Gb  stm8s_it.o [1]
TIM4_ClearFlag          0x00a63f   0x22  Code  Gb  stm8s_tim4.o [1]
TIM4_ClearITPendingBit  0x00a661   0x22  Code  Gb  stm8s_tim4.o [1]
TIM4_Cmd                0x00a71a   0x1f  Code  Gb  stm8s_tim4.o [1]
TIM4_Config             0x00a6fa   0x20  Code  Gb  tim4.o [1]
TIM4_ITConfig           0x009e21   0x50  Code  Gb  stm8s_tim4.o [1]
TIM4_TimeBaseInit       0x009fee   0x4a  Code  Gb  stm8s_tim4.o [1]
TIM4_UPD_OVF_IRQHandler
                        0x009c52   0x6c  Code  Gb  stm8s_it.o [1]
TIM4_UPD_OVF_IRQHandler::div
                        0x0000fe    0x1  Data  Lc  stm8s_it.o [1]
TLI_IRQHandler          0x00aa62    0x1  Code  Gb  stm8s_it.o [1]
TRAP_IRQHandler         0x00aa61    0x1  Code  Gb  stm8s_it.o [1]
TimingDelay             0x0000ec    0x4  Data  Gb  tim4.o [1]
TimingDelay_Decrement   0x00a310   0x35  Code  Gb  tim4.o [1]
UART2_ClearITPendingBit
                        0x00a438   0x2d  Code  Gb  stm8s_uart2.o [1]
UART2_Cmd               0x00a93e    0xd  Code  Gb  stm8s_uart2.o [1]
UART2_DeInit            0x00a586   0x27  Code  Gb  stm8s_uart2.o [1]
UART2_GetFlagStatus     0x0098ec   0x86  Code  Gb  stm8s_uart2.o [1]
UART2_GetITStatus       0x00971c   0xc2  Code  Gb  stm8s_uart2.o [1]
UART2_ITConfig          0x0093ca   0xe0  Code  Gb  stm8s_uart2.o [1]
UART2_Init              0x00848b  0x25f  Code  Gb  stm8s_uart2.o [1]
UART2_RX_IRQHandler     0x0091f1   0xef  Code  Gb  stm8s_it.o [1]
UART2_ReceiveData8      0x00aa42    0x4  Code  Gb  stm8s_uart2.o [1]
UART2_SendData8         0x00aa46    0x4  Code  Gb  stm8s_uart2.o [1]
UART2_TX_IRQHandler     0x00aa72    0x1  Code  Gb  stm8s_it.o [1]
Uart2_InitSetPar        0x009b67   0x76  Code  Gb  uart2.o [1]
Uart2_SendStr           0x00a492   0x2a  Code  Gb  uart2.o [1]
Uart2_SendStrLen        0x00a2da   0x36  Code  Gb  uart2.o [1]
Uart_Driver             0x0086ea  0x1ea  Code  Gb  uart2.o [1]
Uart_Monitor            0x00a140   0x3e  Code  Gb  uart2.o [1]
_LitobSmallNoMb         0x008a5c  0x181  Code  Lc  xprintfsmall_nomb.o [4]
_PrintfSmallNoMb        0x008080  0x40b  Code  Gb  xprintfsmall_nomb.o [4]
_Prout                  0x00a739   0x1f  Code  Gb  xprout.o [4]
_PutcharSmallNoMb       0x00a40a   0x2e  Code  Lc  xprintfsmall_nomb.o [4]
_PutcharsSmallNoMb      0x00a1bc   0x3e  Code  Lc  xprintfsmall_nomb.o [4]
_SProut                 0x00a97d    0xb  Code  Gb  xsprout.o [4]
__DebugBreak            0x00aa75    0x1  Code  Gb  __dbg_break.o [3]
__exit                  0x00a8a6   0x16  Code  Gb  __dbg_xxexit.o [3]
__iar_Memchr            0x00a6a5   0x21  Code  Gb  memchr.o [4]
__iar_Stdout            0x000018   0x28  Data  Gb  xfiles.o [4]
__iar_Strchr            0x00a8d1   0x15  Code  Gb  strchr.o [4]
__iar_Strstr            0x009cbe   0x60  Code  Gb  strstr.o [4]
__iar_copy_init2        0x00a55e         Code  Gb  init_small.o [4]
__iar_data_init2        0x00a758   0x1e  Code  Gb  init.o [4]
__iar_program_start     0x00a84d         Code  Gb  cstartup.o [4]
__iar_unhandled_exception
                        0x00aa59         Code  Gb  unhandled_exception.o [4]
__iar_zero_init2        0x00a776         Code  Gb  init_small.o [4]
__intvec                0x008000         Data  Gb  interrupt.o [4]
__low_level_init        0x00aa56    0x3  Code  Gb  low_level_init.o [4]
_exit                   0x00aa22         Code  Gb  cexit.o [4]
_interrupt_1            0x00aa61         Code  Gb  stm8s_it.o [1]
_interrupt_12           0x00aa6a         Code  Gb  stm8s_it.o [1]
_interrupt_13           0x00aa6b         Code  Gb  stm8s_it.o [1]
_interrupt_14           0x00aa6c         Code  Gb  stm8s_it.o [1]
_interrupt_15           0x00aa6d         Code  Gb  stm8s_it.o [1]
_interrupt_16           0x00aa6e         Code  Gb  stm8s_it.o [1]
_interrupt_17           0x00aa6f         Code  Gb  stm8s_it.o [1]
_interrupt_18           0x00aa70         Code  Gb  stm8s_it.o [1]
_interrupt_2            0x00aa62         Code  Gb  stm8s_it.o [1]
_interrupt_21           0x00aa71         Code  Gb  stm8s_it.o [1]
_interrupt_22           0x00aa72         Code  Gb  stm8s_it.o [1]
_interrupt_23           0x0091f1         Code  Gb  stm8s_it.o [1]
_interrupt_24           0x00aa73         Code  Gb  stm8s_it.o [1]
_interrupt_25           0x009c52         Code  Gb  stm8s_it.o [1]
_interrupt_26           0x00aa74         Code  Gb  stm8s_it.o [1]
_interrupt_3            0x00aa63         Code  Gb  stm8s_it.o [1]
_interrupt_4            0x00aa64         Code  Gb  stm8s_it.o [1]
_interrupt_5            0x00aa65         Code  Gb  stm8s_it.o [1]
_interrupt_6            0x00aa66         Code  Gb  stm8s_it.o [1]
_interrupt_7            0x00aa67         Code  Gb  stm8s_it.o [1]
_interrupt_8            0x00aa68         Code  Gb  stm8s_it.o [1]
_interrupt_9            0x00aa69         Code  Gb  stm8s_it.o [1]
action_flag             0x0000f8    0x2  Data  Gb  uart2.o [1]
assert_failed           0x00a835   0x18  Code  Gb  main.o [1]
beginRcv                0x0000fb    0x1  Data  Gb  main.o [1]
currentTransformerBoard
                        0x009a77   0x78  Code  Gb  main.o [1]
data_uart2              0x0000e3    0x9  Data  Gb  uart2.o [1]
dev_info                0x0000ca    0xf  Data  Gb  device_info.o [1]
exit                    0x00aa4e    0x4  Code  Gb  exit.o [4]
fputc                   0x00a683   0x22  Code  Gb  uart2.o [1]
ht7017_init             0x009587   0xcb  Code  Gb  ht7017.o [1]
main                    0x009d7c   0x53  Code  Gb  main.o [1]
memcmp                  0x00a3aa   0x30  Code  Gb  memcmp.o [4]
memset                  0x00a890   0x16  Code  Gb  memset.o [4]
obuf                    0x000040   0x50  Data  Lc  xfiles.o [4]
pad                     0x00a1fa   0x3d  Code  Lc  xprintfsmall_nomb.o [4]
printf                  0x00a5f8   0x24  Code  Gb  printf.o [4]
putchar                 0x00a9f6    0x8  Code  Gb  putchar.o [4]
recData                 0x0000d9    0xa  Data  Gb  stm8s_it.o [1]
rec_cnt                 0x0000fd    0x1  Data  Gb  stm8s_it.o [1]
sprintf                 0x00a07d   0x44  Code  Gb  sprintf.o [4]
strlen                  0x00a958    0xd  Code  Gb  strlen.o [4]
strncmp                 0x00a345   0x35  Code  Gb  strncmp.o [4]


[1] = H:\SiShengShiyanJidi\STM8S005K6_JL\stm8s005_template\EWARM\Debug\Obj
[2] = command line
[3] = dbgstm8mmd.a
[4] = dlstm8mmf.a

  9 975 bytes of readonly  code memory
    895 bytes of readonly  data memory
    767 bytes of readwrite data memory

Errors: none
Warnings: none
